; Function Attrs: mustprogress uwtable
define void @_ZN11CommandData4InitEv(ptr noundef nonnull align 8 dereferenceable(100904) %0) local_unnamed_addr #0 align 2 personality ptr @__gxx_personality_v0 {
  tail call void @_ZN10RAROptions4InitEv(ptr noundef nonnull align 8 dereferenceable(83464) %0)
  %2 = getelementptr inbounds nuw i8, ptr %0, i64 83476
  store i32 0, ptr %2, align 4
  %3 = getelementptr inbounds nuw i8, ptr %0, i64 91732
  store i32 0, ptr %3, align 4
  %4 = getelementptr inbounds nuw i8, ptr %0, i64 83464
  store i8 0, ptr %4, align 8
  %5 = getelementptr inbounds nuw i8, ptr %0, i64 83465
  store i8 0, ptr %5, align 1
  %6 = getelementptr inbounds nuw i8, ptr %0, i64 83468
  store i32 0, ptr %6, align 4
  %7 = getelementptr inbounds nuw i8, ptr %0, i64 83472
  store i8 0, ptr %7, align 8
  %8 = getelementptr inbounds nuw i8, ptr %0, i64 99928
  tail call void @_ZN10StringList5ResetEv(ptr noundef nonnull align 8 dereferenceable(184) %8)
  %9 = getelementptr inbounds nuw i8, ptr %0, i64 100112
  tail call void @_ZN10StringList5ResetEv(ptr noundef nonnull align 8 dereferenceable(184) %9)
  %10 = getelementptr inbounds nuw i8, ptr %0, i64 100296
  tail call void @_ZN10StringList5ResetEv(ptr noundef nonnull align 8 dereferenceable(184) %10)
  %11 = getelementptr inbounds nuw i8, ptr %0, i64 100480
  tail call void @_ZN10StringList5ResetEv(ptr noundef nonnull align 8 dereferenceable(184) %11)
  %12 = getelementptr inbounds nuw i8, ptr %0, i64 100664
  tail call void @_ZN10StringList5ResetEv(ptr noundef nonnull align 8 dereferenceable(184) %12)
  %13 = getelementptr inbounds nuw i8, ptr %0, i64 100848
  tail call void @_ZN11SecPassword5CleanEv(ptr noundef nonnull align 8 dereferenceable(25) %13)
  %14 = getelementptr inbounds nuw i8, ptr %0, i64 100880
  %15 = load ptr, ptr %14, align 8
  %16 = getelementptr inbounds nuw i8, ptr %0, i64 100888
  %17 = load ptr, ptr %16, align 8
  %.not.i.i = icmp eq ptr %17, %15
  br i1 %.not.i.i, label %_ZNSt6vectorIlSaIlEE5clearEv.exit, label %18

18:                                               ; preds = %1
  store ptr %15, ptr %16, align 8
  br label %_ZNSt6vectorIlSaIlEE5clearEv.exit

_ZNSt6vectorIlSaIlEE5clearEv.exit:                ; preds = %1, %18
  ret void
}